(icreate_obj
star
p0
(dp1
S'exposures'
p2
(icreate_obj
exposures
p3
(dp4
S'pivots'
p5
cnumpy.core.multiarray
_reconstruct
p6
(cnumpy
ndarray
p7
(I0
tp8
S'b'
p9
tp10
Rp11
(I1
(I0
tp12
cnumpy
dtype
p13
(S'f8'
p14
I0
I1
tp15
Rp16
(I3
S'<'
p17
NNNI-1
I-1
I0
tp18
bI00
S''
p19
tp20
bsS'lengths'
p21
g6
(g7
(I0
tp22
g9
tp23
Rp24
(I1
(I0
tp25
g16
I00
g19
tp26
bsS'UTdates'
p27
g6
(g7
(I0
tp28
g9
tp29
Rp30
(I1
(I0
tp31
g16
I00
g19
tp32
bsS'cameras'
p33
g6
(g7
(I0
tp34
g9
tp35
Rp36
(I1
(I4
tp37
g13
(S'O8'
p38
I0
I1
tp39
Rp40
(I3
S'|'
p41
NNNI-1
I-1
I63
tp42
bI00
(lp43
(icreate_obj
camera
p44
(dp45
S'Ps'
p46
(lp47
sS'wavelengths'
p48
g6
(g7
(I0
tp49
g9
tp50
Rp51
(I1
(I0
tp52
g16
I00
g19
tp53
bsS'shfted_wavelengths'
p54
(lp55
sS'CCCurves'
p56
(lp57
sS'red_fluxes'
p58
g6
(g7
(I0
tp59
g9
tp60
Rp61
(I1
(I0
tp62
g16
I00
g19
tp63
bsS'RVs'
p64
(lp65
sS'safe_flag'
p66
g6
(g7
(I0
tp67
g9
tp68
Rp69
(I1
(I0
tp70
g13
(S'b1'
p71
I0
I1
tp72
Rp73
(I3
S'|'
p74
NNNI-1
I-1
I0
tp75
bI00
g19
tp76
bsS'clean_wavelengths'
p77
(lp78
sS'fileNames'
p79
g6
(g7
(I0
tp80
g9
tp81
Rp82
(I1
(I0
tp83
g16
I00
g19
tp84
bsS'sigmas'
p85
(lp86
sS'clean_fluxes'
p87
(lp88
sba(icreate_obj
camera
p89
(dp90
g46
(lp91
sg48
g6
(g7
(I0
tp92
g9
tp93
Rp94
(I1
(I0
tp95
g16
I00
g19
tp96
bsg54
(lp97
sg56
(lp98
sg58
g6
(g7
(I0
tp99
g9
tp100
Rp101
(I1
(I0
tp102
g16
I00
g19
tp103
bsg64
(lp104
sg66
g6
(g7
(I0
tp105
g9
tp106
Rp107
(I1
(I0
tp108
g73
I00
g19
tp109
bsg77
(lp110
sg79
g6
(g7
(I0
tp111
g9
tp112
Rp113
(I1
(I0
tp114
g16
I00
g19
tp115
bsg85
(lp116
sg87
(lp117
sba(icreate_obj
camera
p118
(dp119
g46
(lp120
sg48
g6
(g7
(I0
tp121
g9
tp122
Rp123
(I1
(I0
tp124
g16
I00
g19
tp125
bsg54
(lp126
sg56
(lp127
sg58
g6
(g7
(I0
tp128
g9
tp129
Rp130
(I1
(I0
tp131
g16
I00
g19
tp132
bsg64
(lp133
sg66
g6
(g7
(I0
tp134
g9
tp135
Rp136
(I1
(I0
tp137
g73
I00
g19
tp138
bsg77
(lp139
sg79
g6
(g7
(I0
tp140
g9
tp141
Rp142
(I1
(I0
tp143
g16
I00
g19
tp144
bsg85
(lp145
sg87
(lp146
sba(icreate_obj
camera
p147
(dp148
g46
(lp149
sg48
g6
(g7
(I0
tp150
g9
tp151
Rp152
(I1
(I0
tp153
g16
I00
g19
tp154
bsg54
(lp155
sg56
(lp156
sg58
g6
(g7
(I0
tp157
g9
tp158
Rp159
(I1
(I0
tp160
g16
I00
g19
tp161
bsg64
(lp162
sg66
g6
(g7
(I0
tp163
g9
tp164
Rp165
(I1
(I0
tp166
g73
I00
g19
tp167
bsg77
(lp168
sg79
g6
(g7
(I0
tp169
g9
tp170
Rp171
(I1
(I0
tp172
g16
I00
g19
tp173
bsg85
(lp174
sg87
(lp175
sbatp176
bsS'HRs'
p177
g6
(g7
(I0
tp178
g9
tp179
Rp180
(I1
(I0
tp181
g16
I00
g19
tp182
bsS'UTends'
p183
g6
(g7
(I0
tp184
g9
tp185
Rp186
(I1
(I0
tp187
g16
I00
g19
tp188
bsS'UTstarts'
p189
g6
(g7
(I0
tp190
g9
tp191
Rp192
(I1
(I0
tp193
g16
I00
g19
tp194
bsS'plates'
p195
g6
(g7
(I0
tp196
g9
tp197
Rp198
(I1
(I0
tp199
g16
I00
g19
tp200
bsS'JDs'
p201
g6
(g7
(I0
tp202
g9
tp203
Rp204
(I1
(I0
tp205
g16
I00
g19
tp206
bsbsb.